; ModuleID = 'source-C-CXX/33/951.c'
source_filename = "source-C-CXX/33/951.c"
target datalayout = "e-m:e-p270:32:32-p271:32:32-p272:64:64-i64:64-f80:128-n8:16:32:64-S128"
target triple = "x86_64-pc-linux-gnu"

@.str = private unnamed_addr constant [3 x i8] c"%d\00", align 1
@.str.2 = private unnamed_addr constant [11 x i8] c"%d*3+1=%d\0A\00", align 1
@.str.3 = private unnamed_addr constant [9 x i8] c"%d/2=%d\0A\00", align 1
@str.4 = private unnamed_addr constant [4 x i8] c"End\00", align 1

; Function Attrs: nofree nounwind sspstrong uwtable
define dso_local void @main() local_unnamed_addr #0 {
  %1 = alloca [10000 x i32], align 16
  %2 = bitcast [10000 x i32]* %1 to i8*
  call void @llvm.lifetime.start.p0i8(i64 40000, i8* nonnull %2) #4
  %3 = getelementptr inbounds [10000 x i32], [10000 x i32]* %1, i64 0, i64 0
  %4 = call i32 (i8*, ...) @__isoc99_scanf(i8* getelementptr inbounds ([3 x i8], [3 x i8]* @.str, i64 0, i64 0), i32* nonnull %3)
  %5 = load i32, i32* %3, align 16, !tbaa !5
  %6 = icmp eq i32 %5, 1
  br i1 %6, label %28, label %7

7:                                                ; preds = %0, %23
  %8 = phi i64 [ %24, %23 ], [ 0, %0 ]
  %9 = phi i32 [ %26, %23 ], [ %5, %0 ]
  %10 = srem i32 %9, 2
  %11 = sdiv i32 %9, 2
  %12 = icmp eq i32 %10, 1
  br i1 %12, label %13, label %19

13:                                               ; preds = %7
  %14 = mul nsw i32 %9, 3
  %15 = add nsw i32 %14, 1
  %16 = add nuw i64 %8, 1
  %17 = getelementptr inbounds [10000 x i32], [10000 x i32]* %1, i64 0, i64 %16
  store i32 %15, i32* %17, align 4, !tbaa !5
  %18 = call i32 (i8*, ...) @printf(i8* nonnull dereferenceable(1) getelementptr inbounds ([11 x i8], [11 x i8]* @.str.2, i64 0, i64 0), i32 %9, i32 %15)
  br label %23

19:                                               ; preds = %7
  %20 = add nuw i64 %8, 1
  %21 = getelementptr inbounds [10000 x i32], [10000 x i32]* %1, i64 0, i64 %20
  store i32 %11, i32* %21, align 4, !tbaa !5
  %22 = call i32 (i8*, ...) @printf(i8* nonnull dereferenceable(1) getelementptr inbounds ([9 x i8], [9 x i8]* @.str.3, i64 0, i64 0), i32 %9, i32 %11)
  br label %23

23:                                               ; preds = %13, %19
  %24 = phi i64 [ %16, %13 ], [ %20, %19 ]
  %25 = getelementptr inbounds [10000 x i32], [10000 x i32]* %1, i64 0, i64 %24
  %26 = load i32, i32* %25, align 4, !tbaa !5
  %27 = icmp eq i32 %26, 1
  br i1 %27, label %28, label %7, !llvm.loop !9

28:                                               ; preds = %23, %0
  %29 = phi i8* [ getelementptr inbounds ([4 x i8], [4 x i8]* @str.4, i64 0, i64 0), %0 ], [ getelementptr inbounds ([4 x i8], [4 x i8]* @str.4, i64 0, i64 0), %23 ]
  %30 = call i32 @puts(i8* nonnull dereferenceable(1) %29)
  call void @llvm.lifetime.end.p0i8(i64 40000, i8* nonnull %2) #4
  ret void
}

; Function Attrs: argmemonly mustprogress nofree nosync nounwind willreturn
declare void @llvm.lifetime.start.p0i8(i64 immarg, i8* nocapture) #1

; Function Attrs: nofree nounwind
declare noundef i32 @__isoc99_scanf(i8* nocapture noundef readonly, ...) local_unnamed_addr #2

; Function Attrs: nofree nounwind
declare noundef i32 @printf(i8* nocapture noundef readonly, ...) local_unnamed_addr #2

; Function Attrs: argmemonly mustprogress nofree nosync nounwind willreturn
declare void @llvm.lifetime.end.p0i8(i64 immarg, i8* nocapture) #1

; Function Attrs: nofree nounwind
declare noundef i32 @puts(i8* nocapture noundef readonly) local_unnamed_addr #3


!llvm.module.flags = !{!0, !1, !2, !3}
!llvm.ident = !{!4}

!0 = !{i32 1, !"wchar_size", i32 4}
!1 = !{i32 7, !"PIC Level", i32 2}
!2 = !{i32 7, !"PIE Level", i32 2}
!3 = !{i32 7, !"uwtable", i32 1}
!4 = !{!"clang version 13.0.0"}
!5 = !{!6, !6, i64 0}
!6 = !{!"int", !7, i64 0}
!7 = !{!"omnipotent char", !8, i64 0}
!8 = !{!"Simple C/C++ TBAA"}
!9 = distinct !{!9, !10}
!10 = !{!"llvm.loop.mustprogress"}
